; ModuleID = '2/784.c'
source_filename = "2/784.c"
target datalayout = "e-m:e-p270:32:32-p271:32:32-p272:64:64-i64:64-f80:128-n8:16:32:64-S128"
target triple = "x86_64-pc-linux-gnu"

@.str = private unnamed_addr constant [3 x i8] c"%d\00", align 1
@.str.1 = private unnamed_addr constant [6 x i8] c"%d %s\00", align 1
@.str.2 = private unnamed_addr constant [4 x i8] c"%c\0A\00", align 1
@.str.3 = private unnamed_addr constant [4 x i8] c"%d\0A\00", align 1

; Function Attrs: noinline nounwind uwtable
define dso_local void @main() #0 {
  %1 = alloca i32, align 4
  %2 = alloca i32, align 4
  %3 = alloca [1000 x i32], align 16
  %4 = alloca [26 x i32], align 16
  %5 = alloca i32, align 4
  %6 = alloca [1000 x [30 x i8]], align 16
  %7 = alloca i32, align 4
  %8 = alloca i32, align 4
  %9 = bitcast [26 x i32]* %4 to i8*
  call void @llvm.memset.p0i8.i64(i8* align 16 %9, i8 0, i64 104, i1 false)
  %10 = call i32 (i8*, ...) @__isoc99_scanf(i8* getelementptr inbounds ([3 x i8], [3 x i8]* @.str, i64 0, i64 0), i32* %1)
  store i32 0, i32* %7, align 4
  br label %11

11:                                               ; preds = %53, %0
  %12 = load i32, i32* %7, align 4
  %13 = load i32, i32* %1, align 4
  %14 = icmp slt i32 %12, %13
  br i1 %14, label %15, label %56

15:                                               ; preds = %11
  %16 = load i32, i32* %7, align 4
  %17 = sext i32 %16 to i64
  %18 = getelementptr inbounds [1000 x i32], [1000 x i32]* %3, i64 0, i64 %17
  %19 = load i32, i32* %7, align 4
  %20 = sext i32 %19 to i64
  %21 = getelementptr inbounds [1000 x [30 x i8]], [1000 x [30 x i8]]* %6, i64 0, i64 %20
  %22 = getelementptr inbounds [30 x i8], [30 x i8]* %21, i64 0, i64 0
  %23 = call i32 (i8*, ...) @__isoc99_scanf(i8* getelementptr inbounds ([6 x i8], [6 x i8]* @.str.1, i64 0, i64 0), i32* %18, i8* %22)
  store i32 0, i32* %8, align 4
  br label %24

24:                                               ; preds = %49, %15
  %25 = load i32, i32* %7, align 4
  %26 = sext i32 %25 to i64
  %27 = getelementptr inbounds [1000 x [30 x i8]], [1000 x [30 x i8]]* %6, i64 0, i64 %26
  %28 = load i32, i32* %8, align 4
  %29 = sext i32 %28 to i64
  %30 = getelementptr inbounds [30 x i8], [30 x i8]* %27, i64 0, i64 %29
  %31 = load i8, i8* %30, align 1
  %32 = sext i8 %31 to i32
  %33 = icmp ne i32 %32, 0
  br i1 %33, label %34, label %52

34:                                               ; preds = %24
  %35 = load i32, i32* %7, align 4
  %36 = sext i32 %35 to i64
  %37 = getelementptr inbounds [1000 x [30 x i8]], [1000 x [30 x i8]]* %6, i64 0, i64 %36
  %38 = load i32, i32* %8, align 4
  %39 = sext i32 %38 to i64
  %40 = getelementptr inbounds [30 x i8], [30 x i8]* %37, i64 0, i64 %39
  %41 = load i8, i8* %40, align 1
  %42 = sext i8 %41 to i32
  %43 = sub nsw i32 %42, 65
  store i32 %43, i32* %2, align 4
  %44 = load i32, i32* %2, align 4
  %45 = sext i32 %44 to i64
  %46 = getelementptr inbounds [26 x i32], [26 x i32]* %4, i64 0, i64 %45
  %47 = load i32, i32* %46, align 4
  %48 = add nsw i32 %47, 1
  store i32 %48, i32* %46, align 4
  br label %49

49:                                               ; preds = %34
  %50 = load i32, i32* %8, align 4
  %51 = add nsw i32 %50, 1
  store i32 %51, i32* %8, align 4
  br label %24

52:                                               ; preds = %24
  br label %53

53:                                               ; preds = %52
  %54 = load i32, i32* %7, align 4
  %55 = add nsw i32 %54, 1
  store i32 %55, i32* %7, align 4
  br label %11

56:                                               ; preds = %11
  store i32 0, i32* %2, align 4
  %57 = getelementptr inbounds [26 x i32], [26 x i32]* %4, i64 0, i64 0
  %58 = load i32, i32* %57, align 16
  store i32 %58, i32* %5, align 4
  store i32 0, i32* %7, align 4
  br label %59

59:                                               ; preds = %76, %56
  %60 = load i32, i32* %7, align 4
  %61 = icmp slt i32 %60, 26
  br i1 %61, label %62, label %79

62:                                               ; preds = %59
  %63 = load i32, i32* %5, align 4
  %64 = load i32, i32* %7, align 4
  %65 = sext i32 %64 to i64
  %66 = getelementptr inbounds [26 x i32], [26 x i32]* %4, i64 0, i64 %65
  %67 = load i32, i32* %66, align 4
  %68 = icmp slt i32 %63, %67
  br i1 %68, label %69, label %75

69:                                               ; preds = %62
  %70 = load i32, i32* %7, align 4
  %71 = sext i32 %70 to i64
  %72 = getelementptr inbounds [26 x i32], [26 x i32]* %4, i64 0, i64 %71
  %73 = load i32, i32* %72, align 4
  store i32 %73, i32* %5, align 4
  %74 = load i32, i32* %7, align 4
  store i32 %74, i32* %2, align 4
  br label %75

75:                                               ; preds = %69, %62
  br label %76

76:                                               ; preds = %75
  %77 = load i32, i32* %7, align 4
  %78 = add nsw i32 %77, 1
  store i32 %78, i32* %7, align 4
  br label %59

79:                                               ; preds = %59
  %80 = load i32, i32* %2, align 4
  %81 = add nsw i32 65, %80
  %82 = call i32 (i8*, ...) @printf(i8* getelementptr inbounds ([4 x i8], [4 x i8]* @.str.2, i64 0, i64 0), i32 %81)
  %83 = load i32, i32* %2, align 4
  %84 = sext i32 %83 to i64
  %85 = getelementptr inbounds [26 x i32], [26 x i32]* %4, i64 0, i64 %84
  %86 = load i32, i32* %85, align 4
  %87 = call i32 (i8*, ...) @printf(i8* getelementptr inbounds ([4 x i8], [4 x i8]* @.str.3, i64 0, i64 0), i32 %86)
  store i32 0, i32* %7, align 4
  br label %88

88:                                               ; preds = %126, %79
  %89 = load i32, i32* %7, align 4
  %90 = load i32, i32* %1, align 4
  %91 = icmp slt i32 %89, %90
  br i1 %91, label %92, label %129

92:                                               ; preds = %88
  store i32 0, i32* %8, align 4
  br label %93

93:                                               ; preds = %122, %92
  %94 = load i32, i32* %7, align 4
  %95 = sext i32 %94 to i64
  %96 = getelementptr inbounds [1000 x [30 x i8]], [1000 x [30 x i8]]* %6, i64 0, i64 %95
  %97 = load i32, i32* %8, align 4
  %98 = sext i32 %97 to i64
  %99 = getelementptr inbounds [30 x i8], [30 x i8]* %96, i64 0, i64 %98
  %100 = load i8, i8* %99, align 1
  %101 = sext i8 %100 to i32
  %102 = icmp ne i32 %101, 0
  br i1 %102, label %103, label %125

103:                                              ; preds = %93
  %104 = load i32, i32* %7, align 4
  %105 = sext i32 %104 to i64
  %106 = getelementptr inbounds [1000 x [30 x i8]], [1000 x [30 x i8]]* %6, i64 0, i64 %105
  %107 = load i32, i32* %8, align 4
  %108 = sext i32 %107 to i64
  %109 = getelementptr inbounds [30 x i8], [30 x i8]* %106, i64 0, i64 %108
  %110 = load i8, i8* %109, align 1
  %111 = sext i8 %110 to i32
  %112 = load i32, i32* %2, align 4
  %113 = add nsw i32 65, %112
  %114 = icmp eq i32 %111, %113
  br i1 %114, label %115, label %121

115:                                              ; preds = %103
  %116 = load i32, i32* %7, align 4
  %117 = sext i32 %116 to i64
  %118 = getelementptr inbounds [1000 x i32], [1000 x i32]* %3, i64 0, i64 %117
  %119 = load i32, i32* %118, align 4
  %120 = call i32 (i8*, ...) @printf(i8* getelementptr inbounds ([4 x i8], [4 x i8]* @.str.3, i64 0, i64 0), i32 %119)
  br label %121

121:                                              ; preds = %115, %103
  br label %122

122:                                              ; preds = %121
  %123 = load i32, i32* %8, align 4
  %124 = add nsw i32 %123, 1
  store i32 %124, i32* %8, align 4
  br label %93

125:                                              ; preds = %93
  br label %126

126:                                              ; preds = %125
  %127 = load i32, i32* %7, align 4
  %128 = add nsw i32 %127, 1
  store i32 %128, i32* %7, align 4
  br label %88

129:                                              ; preds = %88
  ret void
}

; Function Attrs: argmemonly nounwind willreturn
declare void @llvm.memset.p0i8.i64(i8* nocapture writeonly, i8, i64, i1 immarg) #1

declare dso_local i32 @__isoc99_scanf(i8*, ...) #2

declare dso_local i32 @printf(i8*, ...) #2


!llvm.module.flags = !{!0}
!llvm.ident = !{!1}

!0 = !{i32 1, !"wchar_size", i32 4}
!1 = !{!"clang version 10.0.0-4ubuntu1 "}
